target datalayout = "e-m:e-p270:32:32-p271:32:32-p272:64:64-i64:64-i128:128-f80:128-n8:16:32:64-S128"
target triple = "x86_64-pc-linux-gnu"

%"class.std::__cxx11::basic_string" = type { %"struct.std::__cxx11::basic_string<char>::_Alloc_hider", i64, %union.anon }
%"struct.std::__cxx11::basic_string<char>::_Alloc_hider" = type { ptr }
%union.anon = type { i64, [8 x i8] }
%class.anon = type { i8 }
%"class.rc::Gen.35" = type { ptr, %"class.std::__cxx11::basic_string" }
%class.anon.36 = type { %class.anon }
%"struct.std::atomic" = type { %"struct.std::__atomic_base" }
%"struct.std::__atomic_base" = type { i64 }
%"class.rc::gen::detail::MapGen" = type { %class.anon.36, %"class.rc::Gen.35" }
%"class.rc::Gen<char>::GenImpl" = type { %"class.rc::Gen<char>::IGenImpl", %"class.rc::gen::detail::MapGen", %"struct.std::atomic" }
%"class.rc::Gen<char>::IGenImpl" = type { ptr }
%"class.rc::Shrinkable.37" = type { ptr }
%"class.rc::Shrinkable.38" = type { ptr }
%"class.rc::Shrinkable<char>::ShrinkableImpl" = type { %"class.rc::Shrinkable<char>::IShrinkableImpl", %"class.rc::shrinkable::detail::MapShrinkable", %"struct.std::atomic" }
%"class.rc::Shrinkable<char>::IShrinkableImpl" = type { ptr }
%"class.rc::shrinkable::detail::MapShrinkable" = type { %class.anon.36, %"class.rc::Shrinkable.38" }

; Function Attrs: mustprogress nounwind uwtable
define linkonce_odr void @_ZNSt13__atomic_baseIlEC2El(ptr noundef nonnull align 8 dereferenceable(8) %0, i64 noundef %1) unnamed_addr #4 comdat align 2 {
  %3 = alloca ptr, align 8
  %4 = alloca i64, align 8
  store ptr %0, ptr %3, align 8
  store i64 %1, ptr %4, align 8
  %5 = load ptr, ptr %3, align 8
  %6 = getelementptr inbounds %"struct.std::__atomic_base", ptr %5, i32 0, i32 0
  %7 = load i64, ptr %4, align 8
  store i64 %7, ptr %6, align 8
  ret void
}

; Function Attrs: mustprogress nounwind uwtable
define linkonce_odr void @_ZN2rc10ShrinkableIcE15IShrinkableImplD2Ev(ptr noundef nonnull align 8 dereferenceable(8) %0) unnamed_addr #4 comdat align 2 {
  %2 = alloca ptr, align 8
  store ptr %0, ptr %2, align 8
  ret void
}

; Function Attrs: mustprogress nounwind uwtable
define linkonce_odr void @_ZNSt6atomicIlEC2El(ptr noundef nonnull align 8 dereferenceable(8) %0, i64 noundef %1) unnamed_addr #4 comdat align 2 {
  %3 = alloca ptr, align 8
  %4 = alloca i64, align 8
  store ptr %0, ptr %3, align 8
  store i64 %1, ptr %4, align 8
  %5 = load ptr, ptr %3, align 8
  %6 = load i64, ptr %4, align 8
  call void @_ZNSt13__atomic_baseIlEC2El(ptr noundef nonnull align 8 dereferenceable(8) %5, i64 noundef %6) #3
  ret void
}

; Function Attrs: mustprogress nounwind uwtable
define internal void @"_ZN2rc10shrinkable6detail13MapShrinkableISt5tupleIJhEEZNS_3gen5applyIZNS_13storePathCharEvE3$_0JhEEENS_3GenINSt13invoke_resultIT_JDpT0_EE4typeEEEOSA_DpNS8_ISB_EEEUlOS4_E_EC2IRKSK_EENS_10ShrinkableIS4_EESG_"(ptr noundef nonnull align 8 dereferenceable(16) %0, ptr noundef %1, ptr noundef nonnull align 1 dereferenceable(1) %2) unnamed_addr #4 align 2 {
  %4 = alloca ptr, align 8
  %5 = alloca ptr, align 8
  %6 = alloca ptr, align 8
  store ptr %0, ptr %4, align 8
  store ptr %1, ptr %5, align 8
  store ptr %2, ptr %6, align 8
  %7 = load ptr, ptr %4, align 8
  %8 = getelementptr inbounds %"class.rc::shrinkable::detail::MapShrinkable", ptr %7, i32 0, i32 0
  %9 = load ptr, ptr %6, align 8
  call void @llvm.memcpy.p0.p0.i64(ptr align 8 %8, ptr align 1 %9, i64 1, i1 false)
  %10 = getelementptr inbounds %"class.rc::shrinkable::detail::MapShrinkable", ptr %7, i32 0, i32 1
  call void @_ZN2rc10ShrinkableISt5tupleIJhEEEC2EOS3_(ptr noundef nonnull align 8 dereferenceable(8) %10, ptr noundef nonnull align 8 dereferenceable(8) %1) #3
  ret void
}

; Function Attrs: mustprogress nounwind uwtable
define linkonce_odr void @_ZN2rc10ShrinkableISt5tupleIJhEEEC2EOS3_(ptr noundef nonnull align 8 dereferenceable(8) %0, ptr noundef nonnull align 8 dereferenceable(8) %1) unnamed_addr #4 comdat align 2 {
  %3 = alloca ptr, align 8
  %4 = alloca ptr, align 8
  store ptr %0, ptr %3, align 8
  store ptr %1, ptr %4, align 8
  %5 = load ptr, ptr %3, align 8
  %6 = getelementptr inbounds %"class.rc::Shrinkable.38", ptr %5, i32 0, i32 0
  %7 = load ptr, ptr %4, align 8
  %8 = getelementptr inbounds %"class.rc::Shrinkable.38", ptr %7, i32 0, i32 0
  %9 = load ptr, ptr %8, align 8
  store ptr %9, ptr %6, align 8
  %10 = load ptr, ptr %4, align 8
  %11 = getelementptr inbounds %"class.rc::Shrinkable.38", ptr %10, i32 0, i32 0
  store ptr null, ptr %11, align 8
  ret void
}

; Function Attrs: mustprogress nounwind uwtable
define linkonce_odr void @_ZN2rc10ShrinkableIcE15IShrinkableImplC2Ev(ptr noundef nonnull align 8 dereferenceable(8) %0) unnamed_addr #4 comdat align 2 {
  %2 = alloca ptr, align 8
  store ptr %0, ptr %2, align 8
  %3 = load ptr, ptr %2, align 8
  store ptr getelementptr inbounds ({ [8 x ptr] }, ptr @_ZTVN2rc10ShrinkableIcE15IShrinkableImplE, i32 0, i32 0, i32 2), ptr %3, align 8
  ret void
}

; Function Attrs: mustprogress nounwind uwtable
define linkonce_odr void @_ZN2rc10ShrinkableIcED2Ev(ptr noundef nonnull align 8 dereferenceable(8) %0) unnamed_addr #4 comdat align 2 personality ptr @__gxx_personality_v0 {
  %2 = alloca ptr, align 8
  store ptr %0, ptr %2, align 8
  %3 = load ptr, ptr %2, align 8
  %4 = getelementptr inbounds %"class.rc::Shrinkable.37", ptr %3, i32 0, i32 0
  %5 = load ptr, ptr %4, align 8
  %6 = icmp ne ptr %5, null
  br i1 %6, label %7, label %14

7:                                                ; preds = %1
  %8 = getelementptr inbounds %"class.rc::Shrinkable.37", ptr %3, i32 0, i32 0
  %9 = load ptr, ptr %8, align 8
  %10 = load ptr, ptr %9, align 8
  %11 = getelementptr inbounds ptr, ptr %10, i64 3
  %12 = load ptr, ptr %11, align 8
  invoke void %12(ptr noundef nonnull align 8 dereferenceable(8) %9)
          to label %13 unwind label %15

13:                                               ; preds = %7
  br label %14

14:                                               ; preds = %13, %1
  ret void

15:                                               ; preds = %7
  %16 = landingpad { ptr, i32 }
          catch ptr null
  %17 = extractvalue { ptr, i32 } %16, 0
  call void @__clang_call_terminate(ptr %17) #14
  unreachable
}

; Function Attrs: mustprogress uwtable
define internal void @"_ZN2rc10ShrinkableIcE14ShrinkableImplINS_10shrinkable6detail13MapShrinkableISt5tupleIJhEEZNS_3gen5applyIZNS_13storePathCharEvE3$_0JhEEENS_3GenINSt13invoke_resultIT_JDpT0_EE4typeEEEOSD_DpNSB_ISE_EEEUlOS7_E_EEEC2IJNS0_IS7_EERKSN_EEEDpOT_"(ptr noundef nonnull align 8 dereferenceable(32) %0, ptr noundef nonnull align 8 dereferenceable(8) %1, ptr noundef nonnull align 1 dereferenceable(1) %2) unnamed_addr #5 align 2 personality ptr @__gxx_personality_v0 {
  %4 = alloca ptr, align 8
  %5 = alloca ptr, align 8
  %6 = alloca ptr, align 8
  %7 = alloca %"class.rc::Shrinkable.38", align 8
  %8 = alloca ptr, align 8
  %9 = alloca i32, align 4
  store ptr %0, ptr %4, align 8
  store ptr %1, ptr %5, align 8
  store ptr %2, ptr %6, align 8
  %10 = load ptr, ptr %4, align 8
  call void @_ZN2rc10ShrinkableIcE15IShrinkableImplC2Ev(ptr noundef nonnull align 8 dereferenceable(8) %10) #3
  store ptr getelementptr inbounds ({ [8 x ptr] }, ptr @"_ZTVN2rc10ShrinkableIcE14ShrinkableImplINS_10shrinkable6detail13MapShrinkableISt5tupleIJhEEZNS_3gen5applyIZNS_13storePathCharEvE3$_0JhEEENS_3GenINSt13invoke_resultIT_JDpT0_EE4typeEEEOSD_DpNSB_ISE_EEEUlOS7_E_EEEE", i32 0, i32 0, i32 2), ptr %10, align 8
  %11 = getelementptr inbounds %"class.rc::Shrinkable<char>::ShrinkableImpl", ptr %10, i32 0, i32 1
  %12 = load ptr, ptr %5, align 8
  call void @_ZN2rc10ShrinkableISt5tupleIJhEEEC2EOS3_(ptr noundef nonnull align 8 dereferenceable(8) %7, ptr noundef nonnull align 8 dereferenceable(8) %12) #3
  %13 = load ptr, ptr %6, align 8
  invoke void @"_ZN2rc10shrinkable6detail13MapShrinkableISt5tupleIJhEEZNS_3gen5applyIZNS_13storePathCharEvE3$_0JhEEENS_3GenINSt13invoke_resultIT_JDpT0_EE4typeEEEOSA_DpNS8_ISB_EEEUlOS4_E_EC2IRKSK_EENS_10ShrinkableIS4_EESG_"(ptr noundef nonnull align 8 dereferenceable(16) %11, ptr noundef %7, ptr noundef nonnull align 1 dereferenceable(1) %13)
          to label %14 unwind label %16

14:                                               ; preds = %3
  call void @_ZN2rc10ShrinkableISt5tupleIJhEEED2Ev(ptr noundef nonnull align 8 dereferenceable(8) %7) #3
  %15 = getelementptr inbounds %"class.rc::Shrinkable<char>::ShrinkableImpl", ptr %10, i32 0, i32 2
  call void @_ZNSt6atomicIlEC2El(ptr noundef nonnull align 8 dereferenceable(8) %15, i64 noundef 1) #3
  ret void

16:                                               ; preds = %3
  %17 = landingpad { ptr, i32 }
          cleanup
  %18 = extractvalue { ptr, i32 } %17, 0
  store ptr %18, ptr %8, align 8
  %19 = extractvalue { ptr, i32 } %17, 1
  store i32 %19, ptr %9, align 4
  call void @_ZN2rc10ShrinkableISt5tupleIJhEEED2Ev(ptr noundef nonnull align 8 dereferenceable(8) %7) #3
  call void @_ZN2rc10ShrinkableIcE15IShrinkableImplD2Ev(ptr noundef nonnull align 8 dereferenceable(8) %10) #3
  br label %20

20:                                               ; preds = %16
  %21 = load ptr, ptr %8, align 8
  %22 = load i32, ptr %9, align 4
  %23 = insertvalue { ptr, i32 } poison, ptr %21, 0
  %24 = insertvalue { ptr, i32 } %23, i32 %22, 1
  resume { ptr, i32 } %24
}

; Function Attrs: mustprogress nounwind uwtable
define linkonce_odr void @_ZN2rc10ShrinkableIcEC2Ev(ptr noundef nonnull align 8 dereferenceable(8) %0) unnamed_addr #4 comdat align 2 {
  %2 = alloca ptr, align 8
  store ptr %0, ptr %2, align 8
  %3 = load ptr, ptr %2, align 8
  %4 = getelementptr inbounds %"class.rc::Shrinkable.37", ptr %3, i32 0, i32 0
  store ptr null, ptr %4, align 8
  ret void
}

; Function Attrs: mustprogress uwtable
define internal void @"_ZN2rc14makeShrinkableINS_10shrinkable6detail13MapShrinkableISt5tupleIJhEEZNS_3gen5applyIZNS_13storePathCharEvE3$_0JhEEENS_3GenINSt13invoke_resultIT_JDpT0_EE4typeEEEOSB_DpNS9_ISC_EEEUlOS5_E_EEJNS_10ShrinkableIS5_EERKSL_EEENSN_INSt5decayIDTcldtclsr3stdE7declvalISB_EE5valueEEE4typeEEEDpOSC_"(ptr dead_on_unwind noalias writable sret(%"class.rc::Shrinkable.37") align 8 %0, ptr noundef nonnull align 8 dereferenceable(8) %1, ptr noundef nonnull align 1 dereferenceable(1) %2) #5 personality ptr @__gxx_personality_v0 {
  %4 = alloca ptr, align 8
  %5 = alloca ptr, align 8
  %6 = alloca ptr, align 8
  %7 = alloca i1, align 1
  %8 = alloca ptr, align 8
  %9 = alloca i32, align 4
  store ptr %0, ptr %4, align 8
  store ptr %1, ptr %5, align 8
  store ptr %2, ptr %6, align 8
  store i1 false, ptr %7, align 1
  call void @_ZN2rc10ShrinkableIcEC2Ev(ptr noundef nonnull align 8 dereferenceable(8) %0) #3
  %10 = invoke noalias noundef nonnull ptr @_Znwm(i64 noundef 32) #15
          to label %11 unwind label %17

11:                                               ; preds = %3
  %12 = load ptr, ptr %5, align 8
  %13 = load ptr, ptr %6, align 8
  invoke void @"_ZN2rc10ShrinkableIcE14ShrinkableImplINS_10shrinkable6detail13MapShrinkableISt5tupleIJhEEZNS_3gen5applyIZNS_13storePathCharEvE3$_0JhEEENS_3GenINSt13invoke_resultIT_JDpT0_EE4typeEEEOSD_DpNSB_ISE_EEEUlOS7_E_EEEC2IJNS0_IS7_EERKSN_EEEDpOT_"(ptr noundef nonnull align 8 dereferenceable(32) %10, ptr noundef nonnull align 8 dereferenceable(8) %12, ptr noundef nonnull align 1 dereferenceable(1) %13)
          to label %14 unwind label %21

14:                                               ; preds = %11
  %15 = getelementptr inbounds %"class.rc::Shrinkable.37", ptr %0, i32 0, i32 0
  store ptr %10, ptr %15, align 8
  store i1 true, ptr %7, align 1
  %16 = load i1, ptr %7, align 1
  br i1 %16, label %26, label %25

17:                                               ; preds = %3
  %18 = landingpad { ptr, i32 }
          cleanup
  %19 = extractvalue { ptr, i32 } %18, 0
  store ptr %19, ptr %8, align 8
  %20 = extractvalue { ptr, i32 } %18, 1
  store i32 %20, ptr %9, align 4
  br label %27

21:                                               ; preds = %11
  %22 = landingpad { ptr, i32 }
          cleanup
  %23 = extractvalue { ptr, i32 } %22, 0
  store ptr %23, ptr %8, align 8
  %24 = extractvalue { ptr, i32 } %22, 1
  store i32 %24, ptr %9, align 4
  call void @_ZdlPv(ptr noundef %10) #16
  br label %27

25:                                               ; preds = %14
  call void @_ZN2rc10ShrinkableIcED2Ev(ptr noundef nonnull align 8 dereferenceable(8) %0) #3
  br label %26

26:                                               ; preds = %25, %14
  ret void

27:                                               ; preds = %21, %17
  call void @_ZN2rc10ShrinkableIcED2Ev(ptr noundef nonnull align 8 dereferenceable(8) %0) #3
  br label %28

28:                                               ; preds = %27
  %29 = load ptr, ptr %8, align 8
  %30 = load i32, ptr %9, align 4
  %31 = insertvalue { ptr, i32 } poison, ptr %29, 0
  %32 = insertvalue { ptr, i32 } %31, i32 %30, 1
  resume { ptr, i32 } %32
}

; Function Attrs: mustprogress nounwind uwtable
define linkonce_odr void @_ZN2rc10ShrinkableISt5tupleIJhEEED2Ev(ptr noundef nonnull align 8 dereferenceable(8) %0) unnamed_addr #4 comdat align 2 personality ptr @__gxx_personality_v0 {
  %2 = alloca ptr, align 8
  store ptr %0, ptr %2, align 8
  %3 = load ptr, ptr %2, align 8
  %4 = getelementptr inbounds %"class.rc::Shrinkable.38", ptr %3, i32 0, i32 0
  %5 = load ptr, ptr %4, align 8
  %6 = icmp ne ptr %5, null
  br i1 %6, label %7, label %14

7:                                                ; preds = %1
  %8 = getelementptr inbounds %"class.rc::Shrinkable.38", ptr %3, i32 0, i32 0
  %9 = load ptr, ptr %8, align 8
  %10 = load ptr, ptr %9, align 8
  %11 = getelementptr inbounds ptr, ptr %10, i64 3
  %12 = load ptr, ptr %11, align 8
  invoke void %12(ptr noundef nonnull align 8 dereferenceable(8) %9)
          to label %13 unwind label %15

13:                                               ; preds = %7
  br label %14

14:                                               ; preds = %13, %1
  ret void

15:                                               ; preds = %7
  %16 = landingpad { ptr, i32 }
          catch ptr null
  %17 = extractvalue { ptr, i32 } %16, 0
  call void @__clang_call_terminate(ptr %17) #14
  unreachable
}

; Function Attrs: mustprogress uwtable
define internal void @"_ZN2rc10shrinkable3mapISt5tupleIJhEERKZNS_3gen5applyIZNS_13storePathCharEvE3$_0JhEEENS_3GenINSt13invoke_resultIT_JDpT0_EE4typeEEEOS9_DpNS7_ISA_EEEUlOS3_E_EENS_10ShrinkableINSt5decayINS8_IT0_JS9_EE4typeEE4typeEEENSM_IS9_EEOSO_"(ptr dead_on_unwind noalias writable sret(%"class.rc::Shrinkable.37") align 8 %0, ptr noundef %1, ptr noundef nonnull align 1 dereferenceable(1) %2) #5 {
  %4 = alloca ptr, align 8
  %5 = alloca ptr, align 8
  %6 = alloca ptr, align 8
  store ptr %0, ptr %4, align 8
  store ptr %1, ptr %5, align 8
  store ptr %2, ptr %6, align 8
  %7 = load ptr, ptr %6, align 8
  call void @"_ZN2rc14makeShrinkableINS_10shrinkable6detail13MapShrinkableISt5tupleIJhEEZNS_3gen5applyIZNS_13storePathCharEvE3$_0JhEEENS_3GenINSt13invoke_resultIT_JDpT0_EE4typeEEEOSB_DpNS9_ISC_EEEUlOS5_E_EEJNS_10ShrinkableIS5_EERKSL_EEENSN_INSt5decayIDTcldtclsr3stdE7declvalISB_EE5valueEEE4typeEEEDpOSC_"(ptr dead_on_unwind writable sret(%"class.rc::Shrinkable.37") align 8 %0, ptr noundef nonnull align 8 dereferenceable(8) %1, ptr noundef nonnull align 1 dereferenceable(1) %7)
  ret void
}

; Function Attrs: mustprogress uwtable
define internal void @"_ZNK2rc3gen6detail6MapGenISt5tupleIJhEEZNS0_5applyIZNS_13storePathCharEvE3$_0JhEEENS_3GenINSt13invoke_resultIT_JDpT0_EE4typeEEEOS9_DpNS7_ISA_EEEUlOS4_E_EclERKNS_6RandomEi"(ptr dead_on_unwind noalias writable sret(%"class.rc::Shrinkable.37") align 8 %0, ptr noundef nonnull align 8 dereferenceable(48) %1, ptr noundef nonnull align 8 dereferenceable(81) %2, i32 noundef %3) #5 align 2 personality ptr @__gxx_personality_v0 {
  %5 = alloca ptr, align 8
  %6 = alloca ptr, align 8
  %7 = alloca ptr, align 8
  %8 = alloca i32, align 4
  %9 = alloca %"class.rc::Shrinkable.38", align 8
  %10 = alloca ptr, align 8
  %11 = alloca i32, align 4
  store ptr %0, ptr %5, align 8
  store ptr %1, ptr %6, align 8
  store ptr %2, ptr %7, align 8
  store i32 %3, ptr %8, align 4
  %12 = load ptr, ptr %6, align 8
  %13 = getelementptr inbounds %"class.rc::gen::detail::MapGen", ptr %12, i32 0, i32 1
  %14 = load ptr, ptr %7, align 8
  %15 = load i32, ptr %8, align 4
  call void @_ZNK2rc3GenISt5tupleIJhEEEclERKNS_6RandomEi(ptr dead_on_unwind writable sret(%"class.rc::Shrinkable.38") align 8 %9, ptr noundef nonnull align 8 dereferenceable(40) %13, ptr noundef nonnull align 8 dereferenceable(81) %14, i32 noundef %15) #3
  %16 = getelementptr inbounds %"class.rc::gen::detail::MapGen", ptr %12, i32 0, i32 0
  invoke void @"_ZN2rc10shrinkable3mapISt5tupleIJhEERKZNS_3gen5applyIZNS_13storePathCharEvE3$_0JhEEENS_3GenINSt13invoke_resultIT_JDpT0_EE4typeEEEOS9_DpNS7_ISA_EEEUlOS3_E_EENS_10ShrinkableINSt5decayINS8_IT0_JS9_EE4typeEE4typeEEENSM_IS9_EEOSO_"(ptr dead_on_unwind writable sret(%"class.rc::Shrinkable.37") align 8 %0, ptr noundef %9, ptr noundef nonnull align 1 dereferenceable(1) %16)
          to label %17 unwind label %18

17:                                               ; preds = %4
  call void @_ZN2rc10ShrinkableISt5tupleIJhEEED2Ev(ptr noundef nonnull align 8 dereferenceable(8) %9) #3
  ret void

18:                                               ; preds = %4
  %19 = landingpad { ptr, i32 }
          cleanup
  %20 = extractvalue { ptr, i32 } %19, 0
  store ptr %20, ptr %10, align 8
  %21 = extractvalue { ptr, i32 } %19, 1
  store i32 %21, ptr %11, align 4
  call void @_ZN2rc10ShrinkableISt5tupleIJhEEED2Ev(ptr noundef nonnull align 8 dereferenceable(8) %9) #3
  br label %22

22:                                               ; preds = %18
  %23 = load ptr, ptr %10, align 8
  %24 = load i32, ptr %11, align 4
  %25 = insertvalue { ptr, i32 } poison, ptr %23, 0
  %26 = insertvalue { ptr, i32 } %25, i32 %24, 1
  resume { ptr, i32 } %26
}

; Function Attrs: mustprogress uwtable
define internal void @"_ZNK2rc3GenIcE7GenImplINS_3gen6detail6MapGenISt5tupleIJhEEZNS3_5applyIZNS_13storePathCharEvE3$_0JhEEENS0_INSt13invoke_resultIT_JDpT0_EE4typeEEEOSB_DpNS0_ISC_EEEUlOS7_E_EEE8generateERKNS_6RandomEi"(ptr dead_on_unwind noalias writable sret(%"class.rc::Shrinkable.37") align 8 %0, ptr noundef nonnull align 8 dereferenceable(64) %1, ptr noundef nonnull align 8 dereferenceable(81) %2, i32 noundef %3) unnamed_addr #5 align 2 {
  %5 = alloca ptr, align 8
  %6 = alloca ptr, align 8
  %7 = alloca ptr, align 8
  %8 = alloca i32, align 4
  store ptr %0, ptr %5, align 8
  store ptr %1, ptr %6, align 8
  store ptr %2, ptr %7, align 8
  store i32 %3, ptr %8, align 4
  %9 = load ptr, ptr %6, align 8
  %10 = getelementptr inbounds %"class.rc::Gen<char>::GenImpl", ptr %9, i32 0, i32 1
  %11 = load ptr, ptr %7, align 8
  %12 = load i32, ptr %8, align 4
  call void @"_ZNK2rc3gen6detail6MapGenISt5tupleIJhEEZNS0_5applyIZNS_13storePathCharEvE3$_0JhEEENS_3GenINSt13invoke_resultIT_JDpT0_EE4typeEEEOS9_DpNS7_ISA_EEEUlOS4_E_EclERKNS_6RandomEi"(ptr dead_on_unwind writable sret(%"class.rc::Shrinkable.37") align 8 %0, ptr noundef nonnull align 8 dereferenceable(48) %10, ptr noundef nonnull align 8 dereferenceable(81) %11, i32 noundef %12)
  ret void
}