; Function Attrs: mustprogress uwtable
define internal void @"_ZNK2rc3GenIcE7GenImplINS_3gen6detail6MapGenISt5tupleIJhEEZNS3_5applyIZNS_13storePathCharEvE3$_0JhEEENS0_INSt13invoke_resultIT_JDpT0_EE4typeEEEOSB_DpNS0_ISC_EEEUlOS7_E_EEE8generateERKNS_6RandomEi"(ptr dead_on_unwind noalias nocapture writable writeonly sret(%"class.rc::Shrinkable.37") align 8 %0, ptr noundef nonnull align 8 dereferenceable(64) %1, ptr noundef nonnull align 8 dereferenceable(81) %2, i32 noundef %3) unnamed_addr #4 align 2 personality ptr @__gxx_personality_v0 {
  %5 = alloca %"class.rc::Shrinkable.38", align 8
  tail call void @llvm.experimental.noalias.scope.decl(metadata !109)
  call void @llvm.lifetime.start.p0(i64 8, ptr nonnull %5)
  %6 = getelementptr inbounds i8, ptr %1, i64 16
  call void @_ZNK2rc3GenISt5tupleIJhEEEclERKNS_6RandomEi(ptr dead_on_unwind nonnull writable sret(%"class.rc::Shrinkable.38") align 8 %5, ptr noundef nonnull align 8 dereferenceable(40) %6, ptr noundef nonnull align 8 dereferenceable(81) %2, i32 noundef %3) #21, !noalias !109
  call void @llvm.experimental.noalias.scope.decl(metadata !112)
  call void @llvm.experimental.noalias.scope.decl(metadata !115)
  %7 = invoke noalias noundef nonnull dereferenceable(32) ptr @_Znwm(i64 noundef 32) #22
          to label %"_ZNK2rc3gen6detail6MapGenISt5tupleIJhEEZNS0_5applyIZNS_13storePathCharEvE3$_0JhEEENS_3GenINSt13invoke_resultIT_JDpT0_EE4typeEEEOS9_DpNS7_ISA_EEEUlOS4_E_EclERKNS_6RandomEi.exit" unwind label %8, !noalias !109

8:                                                ; preds = %4
  %9 = landingpad { ptr, i32 }
          cleanup
  %10 = load ptr, ptr %5, align 8, !noalias !109
  %.not.i4.i = icmp eq ptr %10, null
  br i1 %.not.i4.i, label %_ZN2rc10ShrinkableISt5tupleIJhEEED2Ev.exit5.i, label %11

11:                                               ; preds = %8
  %12 = load ptr, ptr %10, align 8, !noalias !109
  %13 = getelementptr inbounds i8, ptr %12, i64 24
  %14 = load ptr, ptr %13, align 8, !noalias !109
  invoke void %14(ptr noundef nonnull align 8 dereferenceable(8) %10)
          to label %_ZN2rc10ShrinkableISt5tupleIJhEEED2Ev.exit5.i unwind label %15, !noalias !109

15:                                               ; preds = %11
  %16 = landingpad { ptr, i32 }
          catch ptr null
  %17 = extractvalue { ptr, i32 } %16, 0
  call void @__clang_call_terminate(ptr %17) #24
  unreachable

_ZN2rc10ShrinkableISt5tupleIJhEEED2Ev.exit5.i:    ; preds = %11, %8
  resume { ptr, i32 } %9

"_ZNK2rc3gen6detail6MapGenISt5tupleIJhEEZNS0_5applyIZNS_13storePathCharEvE3$_0JhEEENS_3GenINSt13invoke_resultIT_JDpT0_EE4typeEEEOS9_DpNS7_ISA_EEEUlOS4_E_EclERKNS_6RandomEi.exit": ; preds = %4
  %18 = getelementptr inbounds i8, ptr %1, i64 8
  store ptr getelementptr inbounds ({ [8 x ptr] }, ptr @"_ZTVN2rc10ShrinkableIcE14ShrinkableImplINS_10shrinkable6detail13MapShrinkableISt5tupleIJhEEZNS_3gen5applyIZNS_13storePathCharEvE3$_0JhEEENS_3GenINSt13invoke_resultIT_JDpT0_EE4typeEEEOSD_DpNSB_ISE_EEEUlOS7_E_EEEE", i64 0, i32 0, i64 2), ptr %7, align 8, !noalias !118
  %19 = getelementptr inbounds i8, ptr %7, i64 8
  %20 = load ptr, ptr %5, align 8, !noalias !118
  %.val.i.i.i.i = load i8, ptr %18, align 8, !noalias !118
  store i8 %.val.i.i.i.i, ptr %19, align 8, !noalias !118
  %21 = getelementptr inbounds i8, ptr %7, i64 16
  store ptr %20, ptr %21, align 8, !noalias !118
  %22 = getelementptr inbounds i8, ptr %7, i64 24
  store i64 1, ptr %22, align 8, !noalias !118
  store ptr %7, ptr %0, align 8, !alias.scope !118
  call void @llvm.lifetime.end.p0(i64 8, ptr nonnull %5)
  ret void
}